target datalayout = "e-m:e-p270:32:32-p271:32:32-p272:64:64-i64:64-i128:128-f80:128-n8:16:32:64-S128"
target triple = "x86_64-pc-linux-gnu"

%"struct.cvc5::internal::Minisat::Solver::WatcherDeleted" = type { ptr }
%"struct.cvc5::internal::Minisat::Solver::VarOrderLt" = type { ptr }
%"class.cvc5::internal::Minisat::Solver" = type <{ %"class.cvc5::internal::EnvObj", ptr, ptr, i32, i32, i32, [4 x i8], %"class.std::unique_ptr", i8, [7 x i8], %"class.cvc5::internal::Minisat::vec", %"class.cvc5::internal::Minisat::vec.2", i8, i8, [6 x i8], %"class.cvc5::internal::Minisat::vec.3", %"class.cvc5::internal::Minisat::vec.4", i32, [4 x i8], double, double, double, double, i8, [3 x i8], i32, i32, i8, i8, [2 x i8], double, i32, [4 x i8], double, double, double, i32, [4 x i8], double, i64, i64, i64, i64, i64, i64, i64, i64, i64, i64, i64, i64, i8, [7 x i8], %"class.cvc5::internal::Minisat::vec.5", %"class.cvc5::internal::Minisat::vec.5", double, %"class.cvc5::internal::Minisat::vec.6", double, %"class.cvc5::internal::Minisat::OccLists", %"class.cvc5::internal::Minisat::vec.3", %"class.cvc5::internal::Minisat::vec.9", %"class.cvc5::internal::Minisat::vec.8", %"class.cvc5::internal::Minisat::vec.8", %"class.cvc5::internal::Minisat::vec.9", %"class.cvc5::internal::Minisat::vec.4", %"class.cvc5::internal::Minisat::vec.9", %"class.cvc5::internal::Minisat::vec.2", %"class.cvc5::internal::Minisat::vec.10", i32, i32, i64, %"class.cvc5::internal::Minisat::vec.4", %"class.cvc5::internal::Minisat::Heap", double, i8, [7 x i8], %"class.cvc5::internal::Minisat::ClauseAllocator", %"class.cvc5::internal::Minisat::vec.2", %"class.cvc5::internal::Minisat::vec.8", %"class.cvc5::internal::Minisat::vec.4", %"class.cvc5::internal::Minisat::vec.4", %"class.cvc5::internal::Minisat::vec.4", double, double, i32, [4 x i8], i64, i64, i8, i8, [6 x i8] }>
%"class.cvc5::internal::EnvObj" = type { ptr, ptr }
%"class.std::unique_ptr" = type { %"struct.std::__uniq_ptr_data" }
%"struct.std::__uniq_ptr_data" = type { %"class.std::__uniq_ptr_impl" }
%"class.std::__uniq_ptr_impl" = type { %"class.std::tuple" }
%"class.std::tuple" = type { %"struct.std::_Tuple_impl" }
%"struct.std::_Tuple_impl" = type { %"struct.std::_Head_base.1" }
%"struct.std::_Head_base.1" = type { ptr }
%"class.cvc5::internal::Minisat::vec" = type { ptr, i32, i32 }
%"class.cvc5::internal::Minisat::vec.5" = type { ptr, i32, i32 }
%"class.cvc5::internal::Minisat::vec.6" = type { ptr, i32, i32 }
%"class.cvc5::internal::Minisat::OccLists" = type { %"class.cvc5::internal::Minisat::vec.7", %"class.cvc5::internal::Minisat::vec.8", %"class.cvc5::internal::Minisat::vec.4", %"struct.cvc5::internal::Minisat::Solver::WatcherDeleted" }
%"class.cvc5::internal::Minisat::vec.7" = type { ptr, i32, i32 }
%"class.cvc5::internal::Minisat::vec.3" = type { ptr, i32, i32 }
%"class.cvc5::internal::Minisat::vec.9" = type { ptr, i32, i32 }
%"class.cvc5::internal::Minisat::vec.10" = type { ptr, i32, i32 }
%"class.cvc5::internal::Minisat::Heap" = type { %"struct.cvc5::internal::Minisat::Solver::VarOrderLt", %"class.cvc5::internal::Minisat::vec.9", %"class.cvc5::internal::Minisat::vec.9" }
%"class.cvc5::internal::Minisat::ClauseAllocator" = type { %"class.cvc5::internal::Minisat::RegionAllocator.base", i8, [3 x i8] }
%"class.cvc5::internal::Minisat::RegionAllocator.base" = type <{ ptr, i32, i32, i32 }>
%"class.cvc5::internal::Minisat::vec.2" = type { ptr, i32, i32 }
%"class.cvc5::internal::Minisat::vec.8" = type { ptr, i32, i32 }
%"class.cvc5::internal::Minisat::vec.4" = type { ptr, i32, i32 }

; Function Attrs: mustprogress nounwind uwtable
define linkonce_odr hidden noundef i32 @_ZNK4cvc58internal7Minisat3vecIiE4sizeEv(ptr noundef nonnull align 8 dereferenceable(16) %0) #4 comdat align 2 {
  %2 = alloca ptr, align 8
  store ptr %0, ptr %2, align 8, !tbaa !185
  %3 = load ptr, ptr %2, align 8
  %4 = getelementptr inbounds nuw %"class.cvc5::internal::Minisat::vec.9", ptr %3, i32 0, i32 1
  %5 = load i32, ptr %4, align 8, !tbaa !188
  ret i32 %5
}

; Function Attrs: mustprogress nounwind uwtable
define linkonce_odr hidden noundef i32 @_ZNK4cvc58internal7Minisat3vecINS1_6Solver7VarDataEE4sizeEv(ptr noundef nonnull align 8 dereferenceable(16) %0) #4 comdat align 2 {
  %2 = alloca ptr, align 8
  store ptr %0, ptr %2, align 8, !tbaa !195
  %3 = load ptr, ptr %2, align 8
  %4 = getelementptr inbounds nuw %"class.cvc5::internal::Minisat::vec.10", ptr %3, i32 0, i32 1
  %5 = load i32, ptr %4, align 8, !tbaa !198
  ret i32 %5
}

; Function Attrs: inlinehint mustprogress nounwind uwtable
define linkonce_odr noundef double @_ZSt3powIdiEN9__gnu_cxx9__promoteIDTplcvNS1_IT_Xsr3std12__is_integerIS2_EE7__valueEE6__typeELi0EcvNS1_IT0_Xsr3std12__is_integerIS5_EE7__valueEE6__typeELi0EEXsr3std12__is_integerIS8_EE7__valueEE6__typeES2_S5_(double noundef %0, i32 noundef %1) #9 comdat {
  %3 = alloca double, align 8
  %4 = alloca i32, align 4
  store double %0, ptr %3, align 8, !tbaa !20
  store i32 %1, ptr %4, align 4, !tbaa !37
  %5 = load double, ptr %3, align 8, !tbaa !20
  %6 = load i32, ptr %4, align 4, !tbaa !37
  %7 = sitofp i32 %6 to double
  %8 = call double @pow(double noundef %5, double noundef %7) #3, !tbaa !37
  ret double %8
}

; Function Attrs: mustprogress nounwind uwtable
define linkonce_odr hidden noundef i32 @_ZNK4cvc58internal7Minisat3vecINS1_3LitEE4sizeEv(ptr noundef nonnull align 8 dereferenceable(16) %0) #4 comdat align 2 {
  %2 = alloca ptr, align 8
  store ptr %0, ptr %2, align 8, !tbaa !166
  %3 = load ptr, ptr %2, align 8
  %4 = getelementptr inbounds nuw %"class.cvc5::internal::Minisat::vec.4", ptr %3, i32 0, i32 1
  %5 = load i32, ptr %4, align 8, !tbaa !168
  ret i32 %5
}

; Function Attrs: mustprogress nounwind uwtable
define linkonce_odr hidden noundef nonnull align 4 dereferenceable(4) ptr @_ZNK4cvc58internal7Minisat3vecIiEixEi(ptr noundef nonnull align 8 dereferenceable(16) %0, i32 noundef %1) #4 comdat align 2 {
  %3 = alloca ptr, align 8
  %4 = alloca i32, align 4
  store ptr %0, ptr %3, align 8, !tbaa !185
  store i32 %1, ptr %4, align 4, !tbaa !37
  %5 = load ptr, ptr %3, align 8
  %6 = getelementptr inbounds nuw %"class.cvc5::internal::Minisat::vec.9", ptr %5, i32 0, i32 0
  %7 = load ptr, ptr %6, align 8, !tbaa !187
  %8 = load i32, ptr %4, align 4, !tbaa !37
  %9 = sext i32 %8 to i64
  %10 = getelementptr inbounds i32, ptr %7, i64 %9
  ret ptr %10
}

; Function Attrs: inlinehint mustprogress uwtable
define linkonce_odr hidden noundef i32 @_ZNK4cvc58internal7Minisat6Solver13decisionLevelEv(ptr noundef nonnull align 8 dereferenceable(850) %0) #10 comdat align 2 {
  %2 = alloca ptr, align 8
  store ptr %0, ptr %2, align 8, !tbaa !53
  %3 = load ptr, ptr %2, align 8
  %4 = getelementptr inbounds nuw %"class.cvc5::internal::Minisat::Solver", ptr %3, i32 0, i32 65
  %5 = call noundef i32 @_ZNK4cvc58internal7Minisat3vecIiE4sizeEv(ptr noundef nonnull align 8 dereferenceable(16) %4)
  ret i32 %5
}

; Function Attrs: inlinehint mustprogress uwtable
define linkonce_odr hidden noundef i32 @_ZNK4cvc58internal7Minisat6Solver5nVarsEv(ptr noundef nonnull align 8 dereferenceable(850) %0) #10 comdat align 2 {
  %2 = alloca ptr, align 8
  store ptr %0, ptr %2, align 8, !tbaa !53
  %3 = load ptr, ptr %2, align 8
  %4 = getelementptr inbounds nuw %"class.cvc5::internal::Minisat::Solver", ptr %3, i32 0, i32 67
  %5 = call noundef i32 @_ZNK4cvc58internal7Minisat3vecINS1_6Solver7VarDataEE4sizeEv(ptr noundef nonnull align 8 dereferenceable(16) %4)
  ret i32 %5
}

; Function Attrs: mustprogress uwtable
define hidden noundef double @_ZNK4cvc58internal7Minisat6Solver16progressEstimateEv(ptr noundef nonnull align 8 dereferenceable(850) %0) #6 align 2 {
  %2 = alloca ptr, align 8
  %3 = alloca double, align 8
  %4 = alloca double, align 8
  %5 = alloca i32, align 4
  %6 = alloca i32, align 4
  %7 = alloca i32, align 4
  store ptr %0, ptr %2, align 8, !tbaa !53
  %8 = load ptr, ptr %2, align 8
  call void @llvm.lifetime.start.p0(i64 8, ptr %3) #3
  store double 0.000000e+00, ptr %3, align 8, !tbaa !20
  call void @llvm.lifetime.start.p0(i64 8, ptr %4) #3
  %9 = call noundef i32 @_ZNK4cvc58internal7Minisat6Solver5nVarsEv(ptr noundef nonnull align 8 dereferenceable(850) %8)
  %10 = sitofp i32 %9 to double
  %11 = fdiv double 1.000000e+00, %10
  store double %11, ptr %4, align 8, !tbaa !20
  call void @llvm.lifetime.start.p0(i64 4, ptr %5) #3
  store i32 0, ptr %5, align 4, !tbaa !37
  br label %12

12:                                               ; preds = %51, %1
  %13 = load i32, ptr %5, align 4, !tbaa !37
  %14 = call noundef i32 @_ZNK4cvc58internal7Minisat6Solver13decisionLevelEv(ptr noundef nonnull align 8 dereferenceable(850) %8)
  %15 = icmp sle i32 %13, %14
  br i1 %15, label %17, label %16

16:                                               ; preds = %12
  call void @llvm.lifetime.end.p0(i64 4, ptr %5) #3
  br label %54

17:                                               ; preds = %12
  call void @llvm.lifetime.start.p0(i64 4, ptr %6) #3
  %18 = load i32, ptr %5, align 4, !tbaa !37
  %19 = icmp eq i32 %18, 0
  br i1 %19, label %20, label %21

20:                                               ; preds = %17
  br label %27

21:                                               ; preds = %17
  %22 = getelementptr inbounds nuw %"class.cvc5::internal::Minisat::Solver", ptr %8, i32 0, i32 65
  %23 = load i32, ptr %5, align 4, !tbaa !37
  %24 = sub nsw i32 %23, 1
  %25 = call noundef nonnull align 4 dereferenceable(4) ptr @_ZNK4cvc58internal7Minisat3vecIiEixEi(ptr noundef nonnull align 8 dereferenceable(16) %22, i32 noundef %24)
  %26 = load i32, ptr %25, align 4, !tbaa !37
  br label %27

27:                                               ; preds = %21, %20
  %28 = phi i32 [ 0, %20 ], [ %26, %21 ]
  store i32 %28, ptr %6, align 4, !tbaa !37
  call void @llvm.lifetime.start.p0(i64 4, ptr %7) #3
  %29 = load i32, ptr %5, align 4, !tbaa !37
  %30 = call noundef i32 @_ZNK4cvc58internal7Minisat6Solver13decisionLevelEv(ptr noundef nonnull align 8 dereferenceable(850) %8)
  %31 = icmp eq i32 %29, %30
  br i1 %31, label %32, label %35

32:                                               ; preds = %27
  %33 = getelementptr inbounds nuw %"class.cvc5::internal::Minisat::Solver", ptr %8, i32 0, i32 64
  %34 = call noundef i32 @_ZNK4cvc58internal7Minisat3vecINS1_3LitEE4sizeEv(ptr noundef nonnull align 8 dereferenceable(16) %33)
  br label %40

35:                                               ; preds = %27
  %36 = getelementptr inbounds nuw %"class.cvc5::internal::Minisat::Solver", ptr %8, i32 0, i32 65
  %37 = load i32, ptr %5, align 4, !tbaa !37
  %38 = call noundef nonnull align 4 dereferenceable(4) ptr @_ZNK4cvc58internal7Minisat3vecIiEixEi(ptr noundef nonnull align 8 dereferenceable(16) %36, i32 noundef %37)
  %39 = load i32, ptr %38, align 4, !tbaa !37
  br label %40

40:                                               ; preds = %35, %32
  %41 = phi i32 [ %34, %32 ], [ %39, %35 ]
  store i32 %41, ptr %7, align 4, !tbaa !37
  %42 = load double, ptr %4, align 8, !tbaa !20
  %43 = load i32, ptr %5, align 4, !tbaa !37
  %44 = call noundef double @_ZSt3powIdiEN9__gnu_cxx9__promoteIDTplcvNS1_IT_Xsr3std12__is_integerIS2_EE7__valueEE6__typeELi0EcvNS1_IT0_Xsr3std12__is_integerIS5_EE7__valueEE6__typeELi0EEXsr3std12__is_integerIS8_EE7__valueEE6__typeES2_S5_(double noundef %42, i32 noundef %43)
  %45 = load i32, ptr %7, align 4, !tbaa !37
  %46 = load i32, ptr %6, align 4, !tbaa !37
  %47 = sub nsw i32 %45, %46
  %48 = sitofp i32 %47 to double
  %49 = load double, ptr %3, align 8, !tbaa !20
  %50 = call double @llvm.fmuladd.f64(double %44, double %48, double %49)
  store double %50, ptr %3, align 8, !tbaa !20
  call void @llvm.lifetime.end.p0(i64 4, ptr %7) #3
  call void @llvm.lifetime.end.p0(i64 4, ptr %6) #3
  br label %51

51:                                               ; preds = %40
  %52 = load i32, ptr %5, align 4, !tbaa !37
  %53 = add nsw i32 %52, 1
  store i32 %53, ptr %5, align 4, !tbaa !37
  br label %12, !llvm.loop !629

54:                                               ; preds = %16
  %55 = load double, ptr %3, align 8, !tbaa !20
  %56 = call noundef i32 @_ZNK4cvc58internal7Minisat6Solver5nVarsEv(ptr noundef nonnull align 8 dereferenceable(850) %8)
  %57 = sitofp i32 %56 to double
  %58 = fdiv double %55, %57
  call void @llvm.lifetime.end.p0(i64 8, ptr %4) #3
  call void @llvm.lifetime.end.p0(i64 8, ptr %3) #3
  ret double %58
}