; Function Attrs: mustprogress nofree nounwind memory(readwrite, inaccessiblemem: write) uwtable
define hidden noundef double @_ZNK4cvc58internal7Minisat6Solver16progressEstimateEv(ptr noundef nonnull readonly align 8 captures(none) dereferenceable(850) %0) local_unnamed_addr #13 align 2 {
  %2 = getelementptr inbounds nuw i8, ptr %0, i64 608
  %3 = load i32, ptr %2, align 8, !tbaa !106
  %4 = sitofp i32 %3 to double
  %5 = fdiv double 1.000000e+00, %4
  %6 = getelementptr inbounds nuw i8, ptr %0, i64 576
  %7 = load i32, ptr %6, align 8, !tbaa !92
  %.not13 = icmp slt i32 %7, 0
  br i1 %.not13, label %._crit_edge, label %.lr.ph

.lr.ph:                                           ; preds = %1
  %8 = getelementptr inbounds nuw i8, ptr %0, i64 568
  %9 = load ptr, ptr %8, align 8
  %invariant.gep = getelementptr i8, ptr %9, i64 -4
  %10 = getelementptr inbounds nuw i8, ptr %0, i64 560
  br label %12

._crit_edge.loopexit:                             ; preds = %17
  %.pre = load i32, ptr %2, align 8, !tbaa !106
  %.pre17 = sitofp i32 %.pre to double
  br label %._crit_edge

._crit_edge:                                      ; preds = %._crit_edge.loopexit, %1
  %.pre-phi = phi double [ %.pre17, %._crit_edge.loopexit ], [ %4, %1 ]
  %.0.lcssa = phi double [ %29, %._crit_edge.loopexit ], [ 0.000000e+00, %1 ]
  %11 = fdiv double %.0.lcssa, %.pre-phi
  ret double %11

12:                                               ; preds = %.lr.ph, %17
  %indvars.iv = phi i64 [ 0, %.lr.ph ], [ %indvars.iv.next, %17 ]
  %13 = phi i32 [ %7, %.lr.ph ], [ %30, %17 ]
  %.015 = phi double [ 0.000000e+00, %.lr.ph ], [ %29, %17 ]
  %14 = icmp eq i64 %indvars.iv, 0
  br i1 %14, label %17, label %15

15:                                               ; preds = %12
  %gep = getelementptr i32, ptr %invariant.gep, i64 %indvars.iv
  %16 = load i32, ptr %gep, align 4, !tbaa !66
  br label %17

17:                                               ; preds = %12, %15
  %18 = phi i32 [ %16, %15 ], [ 0, %12 ]
  %19 = zext i32 %13 to i64
  %20 = icmp eq i64 %indvars.iv, %19
  %21 = load ptr, ptr %8, align 8
  %22 = getelementptr inbounds nuw i32, ptr %21, i64 %indvars.iv
  %.in = select i1 %20, ptr %10, ptr %22
  %23 = load i32, ptr %.in, align 4, !tbaa !66
  %24 = trunc nuw nsw i64 %indvars.iv to i32
  %25 = uitofp nneg i32 %24 to double
  %26 = tail call noundef double @pow(double noundef %5, double noundef %25) #34, !tbaa !66
  %27 = sub nsw i32 %23, %18
  %28 = sitofp i32 %27 to double
  %29 = tail call double @llvm.fmuladd.f64(double %26, double %28, double %.015)
  %indvars.iv.next = add nuw nsw i64 %indvars.iv, 1
  %30 = load i32, ptr %6, align 8, !tbaa !92
  %31 = sext i32 %30 to i64
  %.not.not = icmp slt i64 %indvars.iv, %31
  br i1 %.not.not, label %12, label %._crit_edge.loopexit, !llvm.loop !459
}